ARM GAS  C:\Users\yunze\AppData\Local\Temp\ccYOJuva.s 			page 1


   1              		.cpu cortex-m4
   2              		.eabi_attribute 27, 1
   3              		.eabi_attribute 28, 1
   4              		.eabi_attribute 20, 1
   5              		.eabi_attribute 21, 1
   6              		.eabi_attribute 23, 3
   7              		.eabi_attribute 24, 1
   8              		.eabi_attribute 25, 1
   9              		.eabi_attribute 26, 1
  10              		.eabi_attribute 30, 1
  11              		.eabi_attribute 34, 1
  12              		.eabi_attribute 18, 4
  13              		.file	"freertos.c"
  14              		.text
  15              	.Ltext0:
  16              		.cfi_sections	.debug_frame
  17              		.section	.rodata.StartDefaultTask.str1.4,"aMS",%progbits,1
  18              		.align	2
  19              	.LC0:
  20 0000 4572726F 		.ascii	"Error on default allocators (line %d)\012\000"
  20      72206F6E 
  20      20646566 
  20      61756C74 
  20      20616C6C 
  21 0027 00       		.align	2
  22              	.LC1:
  23 0028 00       		.ascii	"\000"
  24 0029 000000   		.align	2
  25              	.LC2:
  26 002c 63756265 		.ascii	"cubemx_node\000"
  26      6D785F6E 
  26      6F646500 
  27              		.align	2
  28              	.LC3:
  29 0038 63756265 		.ascii	"cubemx_publisher\000"
  29      6D785F70 
  29      75626C69 
  29      73686572 
  29      00
  30 0049 000000   		.align	2
  31              	.LC4:
  32 004c 4572726F 		.ascii	"Error publishing (line %d)\012\000"
  32      72207075 
  32      626C6973 
  32      68696E67 
  32      20286C69 
  33              		.section	.text.StartDefaultTask,"ax",%progbits
  34              		.align	1
  35              		.global	StartDefaultTask
  36              		.arch armv7e-m
  37              		.syntax unified
  38              		.thumb
  39              		.thumb_func
  40              		.fpu fpv4-sp-d16
  42              	StartDefaultTask:
  43              	.LVL0:
  44              	.LFB139:
ARM GAS  C:\Users\yunze\AppData\Local\Temp\ccYOJuva.s 			page 2


  45              		.file 1 "Core/Src/freertos.c"
   1:Core/Src/freertos.c **** /* USER CODE BEGIN Header */
   2:Core/Src/freertos.c **** /**
   3:Core/Src/freertos.c ****   ******************************************************************************
   4:Core/Src/freertos.c ****   * File Name          : freertos.c
   5:Core/Src/freertos.c ****   * Description        : Code for freertos applications
   6:Core/Src/freertos.c ****   ******************************************************************************
   7:Core/Src/freertos.c ****   * @attention
   8:Core/Src/freertos.c ****   *
   9:Core/Src/freertos.c ****   * Copyright (c) 2024 STMicroelectronics.
  10:Core/Src/freertos.c ****   * All rights reserved.
  11:Core/Src/freertos.c ****   *
  12:Core/Src/freertos.c ****   * This software is licensed under terms that can be found in the LICENSE file
  13:Core/Src/freertos.c ****   * in the root directory of this software component.
  14:Core/Src/freertos.c ****   * If no LICENSE file comes with this software, it is provided AS-IS.
  15:Core/Src/freertos.c ****   *
  16:Core/Src/freertos.c ****   ******************************************************************************
  17:Core/Src/freertos.c ****   */
  18:Core/Src/freertos.c **** /* USER CODE END Header */
  19:Core/Src/freertos.c **** 
  20:Core/Src/freertos.c **** /* Includes ------------------------------------------------------------------*/
  21:Core/Src/freertos.c **** #include "FreeRTOS.h"
  22:Core/Src/freertos.c **** #include "task.h"
  23:Core/Src/freertos.c **** #include "main.h"
  24:Core/Src/freertos.c **** #include "cmsis_os.h"
  25:Core/Src/freertos.c **** 
  26:Core/Src/freertos.c **** /* Private includes ----------------------------------------------------------*/
  27:Core/Src/freertos.c **** /* USER CODE BEGIN Includes */
  28:Core/Src/freertos.c **** #include "usart.h"
  29:Core/Src/freertos.c **** #include <rcl/rcl.h>
  30:Core/Src/freertos.c **** #include <rcl/error_handling.h>
  31:Core/Src/freertos.c **** #include <rclc/rclc.h>
  32:Core/Src/freertos.c **** #include <rclc/executor.h>
  33:Core/Src/freertos.c **** #include <uxr/client/transport.h>
  34:Core/Src/freertos.c **** #include <rmw_microxrcedds_c/config.h>
  35:Core/Src/freertos.c **** #include <rmw_microros/rmw_microros.h>
  36:Core/Src/freertos.c **** #include <std_msgs/msg/int32.h>
  37:Core/Src/freertos.c **** 
  38:Core/Src/freertos.c **** /* USER CODE END Includes */
  39:Core/Src/freertos.c **** 
  40:Core/Src/freertos.c **** /* Private typedef -----------------------------------------------------------*/
  41:Core/Src/freertos.c **** /* USER CODE BEGIN PTD */
  42:Core/Src/freertos.c **** 
  43:Core/Src/freertos.c **** /* USER CODE END PTD */
  44:Core/Src/freertos.c **** 
  45:Core/Src/freertos.c **** /* Private define ------------------------------------------------------------*/
  46:Core/Src/freertos.c **** /* USER CODE BEGIN PD */
  47:Core/Src/freertos.c **** 
  48:Core/Src/freertos.c **** /* USER CODE END PD */
  49:Core/Src/freertos.c **** 
  50:Core/Src/freertos.c **** /* Private macro -------------------------------------------------------------*/
  51:Core/Src/freertos.c **** /* USER CODE BEGIN PM */
  52:Core/Src/freertos.c **** 
  53:Core/Src/freertos.c **** /* USER CODE END PM */
  54:Core/Src/freertos.c **** 
  55:Core/Src/freertos.c **** /* Private variables ---------------------------------------------------------*/
  56:Core/Src/freertos.c **** /* USER CODE BEGIN Variables */
ARM GAS  C:\Users\yunze\AppData\Local\Temp\ccYOJuva.s 			page 3


  57:Core/Src/freertos.c **** 
  58:Core/Src/freertos.c **** /* USER CODE END Variables */
  59:Core/Src/freertos.c **** /* Definitions for defaultTask */
  60:Core/Src/freertos.c **** osThreadId_t defaultTaskHandle;
  61:Core/Src/freertos.c **** const osThreadAttr_t defaultTask_attributes = {
  62:Core/Src/freertos.c ****   .name = "defaultTask",
  63:Core/Src/freertos.c ****   .stack_size = 128 * 4,
  64:Core/Src/freertos.c ****   .priority = (osPriority_t) osPriorityNormal,
  65:Core/Src/freertos.c **** };
  66:Core/Src/freertos.c **** 
  67:Core/Src/freertos.c **** /* Private function prototypes -----------------------------------------------*/
  68:Core/Src/freertos.c **** /* USER CODE BEGIN FunctionPrototypes */
  69:Core/Src/freertos.c **** bool cubemx_transport_open(struct uxrCustomTransport *transport);
  70:Core/Src/freertos.c **** 
  71:Core/Src/freertos.c **** bool cubemx_transport_close(struct uxrCustomTransport *transport);
  72:Core/Src/freertos.c **** 
  73:Core/Src/freertos.c **** size_t cubemx_transport_write(struct uxrCustomTransport *transport, const uint8_t *buf, size_t len,
  74:Core/Src/freertos.c **** 
  75:Core/Src/freertos.c **** size_t cubemx_transport_read(struct uxrCustomTransport *transport, uint8_t *buf, size_t len, int ti
  76:Core/Src/freertos.c **** 
  77:Core/Src/freertos.c **** void *microros_allocate(size_t size, void *state);
  78:Core/Src/freertos.c **** 
  79:Core/Src/freertos.c **** void microros_deallocate(void *pointer, void *state);
  80:Core/Src/freertos.c **** 
  81:Core/Src/freertos.c **** void *microros_reallocate(void *pointer, size_t size, void *state);
  82:Core/Src/freertos.c **** 
  83:Core/Src/freertos.c **** void *microros_zero_allocate(size_t number_of_elements, size_t size_of_element, void *state);
  84:Core/Src/freertos.c **** 
  85:Core/Src/freertos.c **** /* USER CODE END FunctionPrototypes */
  86:Core/Src/freertos.c **** 
  87:Core/Src/freertos.c **** void StartDefaultTask(void *argument);
  88:Core/Src/freertos.c **** 
  89:Core/Src/freertos.c **** void MX_FREERTOS_Init(void); /* (MISRA C 2004 rule 8.1) */
  90:Core/Src/freertos.c **** 
  91:Core/Src/freertos.c **** /**
  92:Core/Src/freertos.c ****   * @brief  FreeRTOS initialization
  93:Core/Src/freertos.c ****   * @param  None
  94:Core/Src/freertos.c ****   * @retval None
  95:Core/Src/freertos.c ****   */
  96:Core/Src/freertos.c **** void MX_FREERTOS_Init(void) {
  97:Core/Src/freertos.c ****   /* USER CODE BEGIN Init */
  98:Core/Src/freertos.c **** 
  99:Core/Src/freertos.c ****   /* USER CODE END Init */
 100:Core/Src/freertos.c **** 
 101:Core/Src/freertos.c ****   /* USER CODE BEGIN RTOS_MUTEX */
 102:Core/Src/freertos.c ****     /* add mutexes, ... */
 103:Core/Src/freertos.c ****   /* USER CODE END RTOS_MUTEX */
 104:Core/Src/freertos.c **** 
 105:Core/Src/freertos.c ****   /* USER CODE BEGIN RTOS_SEMAPHORES */
 106:Core/Src/freertos.c ****     /* add semaphores, ... */
 107:Core/Src/freertos.c ****   /* USER CODE END RTOS_SEMAPHORES */
 108:Core/Src/freertos.c **** 
 109:Core/Src/freertos.c ****   /* USER CODE BEGIN RTOS_TIMERS */
 110:Core/Src/freertos.c ****     /* start timers, add new ones, ... */
 111:Core/Src/freertos.c ****   /* USER CODE END RTOS_TIMERS */
 112:Core/Src/freertos.c **** 
 113:Core/Src/freertos.c ****   /* USER CODE BEGIN RTOS_QUEUES */
ARM GAS  C:\Users\yunze\AppData\Local\Temp\ccYOJuva.s 			page 4


 114:Core/Src/freertos.c ****     /* add queues, ... */
 115:Core/Src/freertos.c ****   /* USER CODE END RTOS_QUEUES */
 116:Core/Src/freertos.c **** 
 117:Core/Src/freertos.c ****   /* Create the thread(s) */
 118:Core/Src/freertos.c ****   /* creation of defaultTask */
 119:Core/Src/freertos.c ****   defaultTaskHandle = osThreadNew(StartDefaultTask, NULL, &defaultTask_attributes);
 120:Core/Src/freertos.c **** 
 121:Core/Src/freertos.c ****   /* USER CODE BEGIN RTOS_THREADS */
 122:Core/Src/freertos.c ****     /* add threads, ... */
 123:Core/Src/freertos.c ****   /* USER CODE END RTOS_THREADS */
 124:Core/Src/freertos.c **** 
 125:Core/Src/freertos.c ****   /* USER CODE BEGIN RTOS_EVENTS */
 126:Core/Src/freertos.c ****     /* add events, ... */
 127:Core/Src/freertos.c ****   /* USER CODE END RTOS_EVENTS */
 128:Core/Src/freertos.c **** 
 129:Core/Src/freertos.c **** }
 130:Core/Src/freertos.c **** 
 131:Core/Src/freertos.c **** /* USER CODE BEGIN Header_StartDefaultTask */
 132:Core/Src/freertos.c **** /**
 133:Core/Src/freertos.c ****   * @brief  Function implementing the defaultTask thread.
 134:Core/Src/freertos.c ****   * @param  argument: Not used
 135:Core/Src/freertos.c ****   * @retval None
 136:Core/Src/freertos.c ****   */
 137:Core/Src/freertos.c **** /* USER CODE END Header_StartDefaultTask */
 138:Core/Src/freertos.c **** void StartDefaultTask(void *argument)
 139:Core/Src/freertos.c **** {
  46              		.loc 1 139 1 view -0
  47              		.cfi_startproc
  48              		@ args = 0, pretend = 0, frame = 160
  49              		@ frame_needed = 0, uses_anonymous_args = 0
  50              		.loc 1 139 1 is_stmt 0 view .LVU1
  51 0000 30B5     		push	{r4, r5, lr}
  52              	.LCFI0:
  53              		.cfi_def_cfa_offset 12
  54              		.cfi_offset 4, -12
  55              		.cfi_offset 5, -8
  56              		.cfi_offset 14, -4
  57 0002 ABB0     		sub	sp, sp, #172
  58              	.LCFI1:
  59              		.cfi_def_cfa_offset 184
 140:Core/Src/freertos.c ****   /* USER CODE BEGIN StartDefaultTask */
 141:Core/Src/freertos.c ****     /* Infinite loop */
 142:Core/Src/freertos.c ****     // micro-ROS configuration
 143:Core/Src/freertos.c ****     rmw_uros_set_custom_transport(
  60              		.loc 1 143 5 is_stmt 1 view .LVU2
  61 0004 274B     		ldr	r3, .L7
  62 0006 0193     		str	r3, [sp, #4]
  63 0008 274B     		ldr	r3, .L7+4
  64 000a 0093     		str	r3, [sp]
  65 000c 274B     		ldr	r3, .L7+8
  66 000e 284A     		ldr	r2, .L7+12
  67 0010 2849     		ldr	r1, .L7+16
  68 0012 0120     		movs	r0, #1
  69              	.LVL1:
  70              		.loc 1 143 5 is_stmt 0 view .LVU3
  71 0014 FFF7FEFF 		bl	rmw_uros_set_custom_transport
  72              	.LVL2:
ARM GAS  C:\Users\yunze\AppData\Local\Temp\ccYOJuva.s 			page 5


 144:Core/Src/freertos.c ****             true,
 145:Core/Src/freertos.c ****             (void *) &huart2,
 146:Core/Src/freertos.c ****             cubemx_transport_open,
 147:Core/Src/freertos.c ****             cubemx_transport_close,
 148:Core/Src/freertos.c ****             cubemx_transport_write,
 149:Core/Src/freertos.c ****             cubemx_transport_read);
 150:Core/Src/freertos.c **** 
 151:Core/Src/freertos.c ****     rcl_allocator_t freeRTOS_allocator = rcutils_get_zero_initialized_allocator();
  73              		.loc 1 151 5 is_stmt 1 view .LVU4
  74              		.loc 1 151 42 is_stmt 0 view .LVU5
  75 0018 25A8     		add	r0, sp, #148
  76 001a FFF7FEFF 		bl	rcutils_get_zero_initialized_allocator
  77              	.LVL3:
 152:Core/Src/freertos.c ****     freeRTOS_allocator.allocate = microros_allocate;
  78              		.loc 1 152 5 is_stmt 1 view .LVU6
  79              		.loc 1 152 33 is_stmt 0 view .LVU7
  80 001e 264B     		ldr	r3, .L7+20
  81 0020 2593     		str	r3, [sp, #148]
 153:Core/Src/freertos.c ****     freeRTOS_allocator.deallocate = microros_deallocate;
  82              		.loc 1 153 5 is_stmt 1 view .LVU8
  83              		.loc 1 153 35 is_stmt 0 view .LVU9
  84 0022 264B     		ldr	r3, .L7+24
  85 0024 2693     		str	r3, [sp, #152]
 154:Core/Src/freertos.c ****     freeRTOS_allocator.reallocate = microros_reallocate;
  86              		.loc 1 154 5 is_stmt 1 view .LVU10
  87              		.loc 1 154 35 is_stmt 0 view .LVU11
  88 0026 264B     		ldr	r3, .L7+28
  89 0028 2793     		str	r3, [sp, #156]
 155:Core/Src/freertos.c ****     freeRTOS_allocator.zero_allocate = microros_zero_allocate;
  90              		.loc 1 155 5 is_stmt 1 view .LVU12
  91              		.loc 1 155 38 is_stmt 0 view .LVU13
  92 002a 264B     		ldr	r3, .L7+32
  93 002c 2893     		str	r3, [sp, #160]
 156:Core/Src/freertos.c **** 
 157:Core/Src/freertos.c ****     if (!rcutils_set_default_allocator(&freeRTOS_allocator)) {
  94              		.loc 1 157 5 is_stmt 1 view .LVU14
  95              		.loc 1 157 10 is_stmt 0 view .LVU15
  96 002e 25A8     		add	r0, sp, #148
  97 0030 FFF7FEFF 		bl	rcutils_set_default_allocator
  98              	.LVL4:
  99              		.loc 1 157 8 view .LVU16
 100 0034 F8B1     		cbz	r0, .L6
 101              	.L2:
 158:Core/Src/freertos.c ****         printf("Error on default allocators (line %d)\n", __LINE__);
 159:Core/Src/freertos.c ****     }
 160:Core/Src/freertos.c **** 
 161:Core/Src/freertos.c ****     // micro-ROS app
 162:Core/Src/freertos.c **** 
 163:Core/Src/freertos.c ****     rcl_publisher_t publisher;
 102              		.loc 1 163 5 is_stmt 1 view .LVU17
 164:Core/Src/freertos.c ****     std_msgs__msg__Int32 msg;
 103              		.loc 1 164 5 view .LVU18
 165:Core/Src/freertos.c ****     rclc_support_t support;
 104              		.loc 1 165 5 view .LVU19
 166:Core/Src/freertos.c ****     rcl_allocator_t allocator;
 105              		.loc 1 166 5 view .LVU20
 167:Core/Src/freertos.c ****     rcl_node_t node;
ARM GAS  C:\Users\yunze\AppData\Local\Temp\ccYOJuva.s 			page 6


 106              		.loc 1 167 5 view .LVU21
 168:Core/Src/freertos.c **** 
 169:Core/Src/freertos.c ****     allocator = rcl_get_default_allocator();
 107              		.loc 1 169 5 view .LVU22
 108              		.loc 1 169 17 is_stmt 0 view .LVU23
 109 0036 02A8     		add	r0, sp, #8
 110 0038 FFF7FEFF 		bl	rcutils_get_default_allocator
 111              	.LVL5:
 112 003c 0BAD     		add	r5, sp, #44
 113 003e 02AC     		add	r4, sp, #8
 114 0040 0FCC     		ldmia	r4!, {r0, r1, r2, r3}
 115 0042 0FC5     		stmia	r5!, {r0, r1, r2, r3}
 116 0044 2368     		ldr	r3, [r4]
 117 0046 2B60     		str	r3, [r5]
 170:Core/Src/freertos.c **** 
 171:Core/Src/freertos.c ****     //create init_options
 172:Core/Src/freertos.c ****     rclc_support_init(&support, 0, NULL, &allocator);
 118              		.loc 1 172 5 is_stmt 1 view .LVU24
 119 0048 0BAB     		add	r3, sp, #44
 120 004a 0022     		movs	r2, #0
 121 004c 1146     		mov	r1, r2
 122 004e 10A8     		add	r0, sp, #64
 123 0050 FFF7FEFF 		bl	rclc_support_init
 124              	.LVL6:
 173:Core/Src/freertos.c **** 
 174:Core/Src/freertos.c ****     // create node
 175:Core/Src/freertos.c ****     rclc_node_init_default(&node, "cubemx_node", "", &support);
 125              		.loc 1 175 5 view .LVU25
 126 0054 10AB     		add	r3, sp, #64
 127 0056 1C4A     		ldr	r2, .L7+36
 128 0058 1C49     		ldr	r1, .L7+40
 129 005a 09A8     		add	r0, sp, #36
 130 005c FFF7FEFF 		bl	rclc_node_init_default
 131              	.LVL7:
 176:Core/Src/freertos.c **** 
 177:Core/Src/freertos.c ****     // create publisher
 178:Core/Src/freertos.c ****     rclc_publisher_init_default(
 132              		.loc 1 178 5 view .LVU26
 133 0060 FFF7FEFF 		bl	rosidl_typesupport_c__get_message_type_support_handle__std_msgs__msg__Int32
 134              	.LVL8:
 135 0064 0246     		mov	r2, r0
 136 0066 1A4B     		ldr	r3, .L7+44
 137 0068 09A9     		add	r1, sp, #36
 138 006a 24A8     		add	r0, sp, #144
 139 006c FFF7FEFF 		bl	rclc_publisher_init_default
 140              	.LVL9:
 179:Core/Src/freertos.c ****             &publisher,
 180:Core/Src/freertos.c ****             &node,
 181:Core/Src/freertos.c ****             ROSIDL_GET_MSG_TYPE_SUPPORT(std_msgs, msg, Int32),
 182:Core/Src/freertos.c ****             "cubemx_publisher");
 183:Core/Src/freertos.c **** 
 184:Core/Src/freertos.c ****     msg.data = 0;
 141              		.loc 1 184 5 view .LVU27
 142              		.loc 1 184 14 is_stmt 0 view .LVU28
 143 0070 0023     		movs	r3, #0
 144 0072 2393     		str	r3, [sp, #140]
 145 0074 0AE0     		b	.L4
ARM GAS  C:\Users\yunze\AppData\Local\Temp\ccYOJuva.s 			page 7


 146              	.L6:
 158:Core/Src/freertos.c ****     }
 147              		.loc 1 158 9 is_stmt 1 view .LVU29
 148 0076 9E21     		movs	r1, #158
 149 0078 1648     		ldr	r0, .L7+48
 150 007a FFF7FEFF 		bl	printf
 151              	.LVL10:
 152 007e DAE7     		b	.L2
 153              	.LVL11:
 154              	.L3:
 155              	.LBB2:
 185:Core/Src/freertos.c ****     for (;;) {
 186:Core/Src/freertos.c ****         rcl_ret_t ret = rcl_publish(&publisher, &msg, NULL);
 187:Core/Src/freertos.c ****         if (ret != RCL_RET_OK) {
 188:Core/Src/freertos.c ****             printf("Error publishing (line %d)\n", __LINE__);
 189:Core/Src/freertos.c ****         }
 190:Core/Src/freertos.c **** 
 191:Core/Src/freertos.c ****         msg.data++;
 156              		.loc 1 191 9 view .LVU30
 157              		.loc 1 191 12 is_stmt 0 view .LVU31
 158 0080 239B     		ldr	r3, [sp, #140]
 159              		.loc 1 191 17 view .LVU32
 160 0082 0133     		adds	r3, r3, #1
 161 0084 2393     		str	r3, [sp, #140]
 192:Core/Src/freertos.c ****         osDelay(10);
 162              		.loc 1 192 9 is_stmt 1 view .LVU33
 163 0086 0A20     		movs	r0, #10
 164 0088 FFF7FEFF 		bl	osDelay
 165              	.LVL12:
 166              	.LBE2:
 185:Core/Src/freertos.c ****     for (;;) {
 167              		.loc 1 185 11 view .LVU34
 168              	.L4:
 185:Core/Src/freertos.c ****     for (;;) {
 169              		.loc 1 185 5 view .LVU35
 170              	.LBB3:
 186:Core/Src/freertos.c ****         if (ret != RCL_RET_OK) {
 171              		.loc 1 186 9 view .LVU36
 186:Core/Src/freertos.c ****         if (ret != RCL_RET_OK) {
 172              		.loc 1 186 25 is_stmt 0 view .LVU37
 173 008c 0022     		movs	r2, #0
 174 008e 23A9     		add	r1, sp, #140
 175 0090 24A8     		add	r0, sp, #144
 176 0092 FFF7FEFF 		bl	rcl_publish
 177              	.LVL13:
 187:Core/Src/freertos.c ****             printf("Error publishing (line %d)\n", __LINE__);
 178              		.loc 1 187 9 is_stmt 1 view .LVU38
 187:Core/Src/freertos.c ****             printf("Error publishing (line %d)\n", __LINE__);
 179              		.loc 1 187 12 is_stmt 0 view .LVU39
 180 0096 0028     		cmp	r0, #0
 181 0098 F2D0     		beq	.L3
 188:Core/Src/freertos.c ****         }
 182              		.loc 1 188 13 is_stmt 1 view .LVU40
 183 009a BC21     		movs	r1, #188
 184 009c 0E48     		ldr	r0, .L7+52
 185              	.LVL14:
 188:Core/Src/freertos.c ****         }
ARM GAS  C:\Users\yunze\AppData\Local\Temp\ccYOJuva.s 			page 8


 186              		.loc 1 188 13 is_stmt 0 view .LVU41
 187 009e FFF7FEFF 		bl	printf
 188              	.LVL15:
 189 00a2 EDE7     		b	.L3
 190              	.L8:
 191              		.align	2
 192              	.L7:
 193 00a4 00000000 		.word	cubemx_transport_read
 194 00a8 00000000 		.word	cubemx_transport_write
 195 00ac 00000000 		.word	cubemx_transport_close
 196 00b0 00000000 		.word	cubemx_transport_open
 197 00b4 00000000 		.word	huart2
 198 00b8 00000000 		.word	microros_allocate
 199 00bc 00000000 		.word	microros_deallocate
 200 00c0 00000000 		.word	microros_reallocate
 201 00c4 00000000 		.word	microros_zero_allocate
 202 00c8 28000000 		.word	.LC1
 203 00cc 2C000000 		.word	.LC2
 204 00d0 38000000 		.word	.LC3
 205 00d4 00000000 		.word	.LC0
 206 00d8 4C000000 		.word	.LC4
 207              	.LBE3:
 208              		.cfi_endproc
 209              	.LFE139:
 211              		.section	.text.MX_FREERTOS_Init,"ax",%progbits
 212              		.align	1
 213              		.global	MX_FREERTOS_Init
 214              		.syntax unified
 215              		.thumb
 216              		.thumb_func
 217              		.fpu fpv4-sp-d16
 219              	MX_FREERTOS_Init:
 220              	.LFB138:
  96:Core/Src/freertos.c ****   /* USER CODE BEGIN Init */
 221              		.loc 1 96 29 is_stmt 1 view -0
 222              		.cfi_startproc
 223              		@ args = 0, pretend = 0, frame = 0
 224              		@ frame_needed = 0, uses_anonymous_args = 0
 225 0000 08B5     		push	{r3, lr}
 226              	.LCFI2:
 227              		.cfi_def_cfa_offset 8
 228              		.cfi_offset 3, -8
 229              		.cfi_offset 14, -4
 119:Core/Src/freertos.c **** 
 230              		.loc 1 119 3 view .LVU43
 119:Core/Src/freertos.c **** 
 231              		.loc 1 119 23 is_stmt 0 view .LVU44
 232 0002 044A     		ldr	r2, .L11
 233 0004 0021     		movs	r1, #0
 234 0006 0448     		ldr	r0, .L11+4
 235 0008 FFF7FEFF 		bl	osThreadNew
 236              	.LVL16:
 119:Core/Src/freertos.c **** 
 237              		.loc 1 119 21 view .LVU45
 238 000c 034B     		ldr	r3, .L11+8
 239 000e 1860     		str	r0, [r3]
 129:Core/Src/freertos.c **** 
ARM GAS  C:\Users\yunze\AppData\Local\Temp\ccYOJuva.s 			page 9


 240              		.loc 1 129 1 view .LVU46
 241 0010 08BD     		pop	{r3, pc}
 242              	.L12:
 243 0012 00BF     		.align	2
 244              	.L11:
 245 0014 00000000 		.word	.LANCHOR0
 246 0018 00000000 		.word	StartDefaultTask
 247 001c 00000000 		.word	defaultTaskHandle
 248              		.cfi_endproc
 249              	.LFE138:
 251              		.global	defaultTask_attributes
 252              		.section	.rodata.str1.4,"aMS",%progbits,1
 253              		.align	2
 254              	.LC5:
 255 0000 64656661 		.ascii	"defaultTask\000"
 255      756C7454 
 255      61736B00 
 256              		.comm	defaultTaskHandle,4,4
 257              		.section	.rodata.defaultTask_attributes,"a"
 258              		.align	2
 259              		.set	.LANCHOR0,. + 0
 262              	defaultTask_attributes:
 263 0000 00000000 		.word	.LC5
 264 0004 00000000 		.space	16
 264      00000000 
 264      00000000 
 264      00000000 
 265 0014 00020000 		.word	512
 266 0018 18000000 		.word	24
 267 001c 00000000 		.space	8
 267      00000000 
 268              		.text
 269              	.Letext0:
 270              		.file 2 "d:\\program files\\stmicroelectronics\\stm32cube\\stm32cubemx\\gcc-arm-none-eabi-9-2019-q
 271              		.file 3 "d:\\program files\\stmicroelectronics\\stm32cube\\stm32cubemx\\gcc-arm-none-eabi-9-2019-q
 272              		.file 4 "d:\\program files\\stmicroelectronics\\stm32cube\\stm32cubemx\\gcc-arm-none-eabi-9-2019-q
 273              		.file 5 "Core/Inc/FreeRTOSConfig.h"
 274              		.file 6 "Drivers/CMSIS/Include/core_cm4.h"
 275              		.file 7 "Drivers/CMSIS/Device/ST/STM32F4xx/Include/system_stm32f4xx.h"
 276              		.file 8 "Drivers/CMSIS/Device/ST/STM32F4xx/Include/stm32f405xx.h"
 277              		.file 9 "Drivers/STM32F4xx_HAL_Driver/Inc/stm32f4xx_hal_def.h"
 278              		.file 10 "Drivers/STM32F4xx_HAL_Driver/Inc/stm32f4xx_hal_dma.h"
 279              		.file 11 "Drivers/STM32F4xx_HAL_Driver/Inc/stm32f4xx_hal_uart.h"
 280              		.file 12 "Drivers/STM32F4xx_HAL_Driver/Inc/stm32f4xx_hal.h"
 281              		.file 13 "Middlewares/Third_Party/FreeRTOS/Source/CMSIS_RTOS_V2/cmsis_os2.h"
 282              		.file 14 "Core/Inc/usart.h"
 283              		.file 15 "micro_ros_stm32cubemx_utils/microros_static_library/libmicroros/microros_include/rcutils
 284              		.file 16 "micro_ros_stm32cubemx_utils/microros_static_library/libmicroros/microros_include/rcl/all
 285              		.file 17 "micro_ros_stm32cubemx_utils/microros_static_library/libmicroros/microros_include/rmw/ret
 286              		.file 18 "d:\\program files\\stmicroelectronics\\stm32cube\\stm32cubemx\\gcc-arm-none-eabi-9-2019-
 287              		.file 19 "d:\\program files\\stmicroelectronics\\stm32cube\\stm32cubemx\\gcc-arm-none-eabi-9-2019-
 288              		.file 20 "d:\\program files\\stmicroelectronics\\stm32cube\\stm32cubemx\\gcc-arm-none-eabi-9-2019-
 289              		.file 21 "d:\\program files\\stmicroelectronics\\stm32cube\\stm32cubemx\\gcc-arm-none-eabi-9-2019-
 290              		.file 22 "d:\\program files\\stmicroelectronics\\stm32cube\\stm32cubemx\\gcc-arm-none-eabi-9-2019-
 291              		.file 23 "micro_ros_stm32cubemx_utils/microros_static_library/libmicroros/microros_include/rcutils
 292              		.file 24 "micro_ros_stm32cubemx_utils/microros_static_library/libmicroros/microros_include/rcutils
 293              		.file 25 "micro_ros_stm32cubemx_utils/microros_static_library/libmicroros/microros_include/rmw/typ
ARM GAS  C:\Users\yunze\AppData\Local\Temp\ccYOJuva.s 			page 10


 294              		.file 26 "micro_ros_stm32cubemx_utils/microros_static_library/libmicroros/microros_include/rcl/typ
 295              		.file 27 "micro_ros_stm32cubemx_utils/microros_static_library/libmicroros/microros_include/rcl/ini
 296              		.file 28 "micro_ros_stm32cubemx_utils/microros_static_library/libmicroros/microros_include/rcl/con
 297              		.file 29 "micro_ros_stm32cubemx_utils/microros_static_library/libmicroros/microros_include/rcl/dom
 298              		.file 30 "micro_ros_stm32cubemx_utils/microros_static_library/libmicroros/microros_include/rcl/nod
 299              		.file 31 "micro_ros_stm32cubemx_utils/microros_static_library/libmicroros/microros_include/rcl/pub
 300              		.file 32 "micro_ros_stm32cubemx_utils/microros_static_library/libmicroros/microros_include/rcl/tim
 301              		.file 33 "micro_ros_stm32cubemx_utils/microros_static_library/libmicroros/microros_include/rmw/qos
 302              		.file 34 "micro_ros_stm32cubemx_utils/microros_static_library/libmicroros/microros_include/rclc/ty
 303              		.file 35 "micro_ros_stm32cubemx_utils/microros_static_library/libmicroros/microros_include/std_msg
 304              		.file 36 "d:\\program files\\stmicroelectronics\\stm32cube\\stm32cubemx\\gcc-arm-none-eabi-9-2019-
 305              		.file 37 "micro_ros_stm32cubemx_utils/microros_static_library/libmicroros/microros_include/rmw_mic
 306              		.file 38 "micro_ros_stm32cubemx_utils/microros_static_library/libmicroros/microros_include/rclc/in
 307              		.file 39 "micro_ros_stm32cubemx_utils/microros_static_library/libmicroros/microros_include/rclc/no
 308              		.file 40 "micro_ros_stm32cubemx_utils/microros_static_library/libmicroros/microros_include/std_msg
 309              		.file 41 "micro_ros_stm32cubemx_utils/microros_static_library/libmicroros/microros_include/rclc/pu
 310              		.file 42 "<built-in>"
ARM GAS  C:\Users\yunze\AppData\Local\Temp\ccYOJuva.s 			page 11

